; Function Attrs: inlinehint nounwind uwtable
define internal fastcc void @Pla_AbcFreeMan(ptr %.544.val) unnamed_addr #2 {
  %.not = icmp eq ptr %.544.val, null
  br i1 %.not, label %69, label %1

1:                                                ; preds = %0
  %2 = getelementptr inbounds nuw i8, ptr %.544.val, i64 40
  %3 = getelementptr inbounds nuw i8, ptr %.544.val, i64 48
  %4 = load ptr, ptr %3, align 8, !tbaa !51
  %.not.i.i = icmp eq ptr %4, null
  br i1 %.not.i.i, label %Vec_IntErase.exit.i, label %5

5:                                                ; preds = %1
  tail call void @free(ptr noundef nonnull %4) #10
  store ptr null, ptr %3, align 8, !tbaa !51
  br label %Vec_IntErase.exit.i

Vec_IntErase.exit.i:                              ; preds = %5, %1
  %6 = getelementptr inbounds nuw i8, ptr %.544.val, i64 44
  store i32 0, ptr %6, align 4, !tbaa !37
  store i32 0, ptr %2, align 8, !tbaa !52
  %7 = getelementptr inbounds nuw i8, ptr %.544.val, i64 56
  %8 = getelementptr inbounds nuw i8, ptr %.544.val, i64 64
  %9 = load ptr, ptr %8, align 8, !tbaa !51
  %.not.i17.i = icmp eq ptr %9, null
  br i1 %.not.i17.i, label %Vec_IntErase.exit18.i, label %10

10:                                               ; preds = %Vec_IntErase.exit.i
  tail call void @free(ptr noundef nonnull %9) #10
  store ptr null, ptr %8, align 8, !tbaa !51
  br label %Vec_IntErase.exit18.i

Vec_IntErase.exit18.i:                            ; preds = %10, %Vec_IntErase.exit.i
  %11 = getelementptr inbounds nuw i8, ptr %.544.val, i64 60
  store i32 0, ptr %11, align 4, !tbaa !37
  store i32 0, ptr %7, align 8, !tbaa !52
  %12 = getelementptr inbounds nuw i8, ptr %.544.val, i64 72
  %13 = getelementptr inbounds nuw i8, ptr %.544.val, i64 80
  %14 = load ptr, ptr %13, align 8, !tbaa !38
  %.not.i19.i = icmp eq ptr %14, null
  br i1 %.not.i19.i, label %Vec_WrdErase.exit.i, label %15

15:                                               ; preds = %Vec_IntErase.exit18.i
  tail call void @free(ptr noundef nonnull %14) #10
  store ptr null, ptr %13, align 8, !tbaa !38
  br label %Vec_WrdErase.exit.i

Vec_WrdErase.exit.i:                              ; preds = %15, %Vec_IntErase.exit18.i
  %16 = getelementptr inbounds nuw i8, ptr %.544.val, i64 76
  store i32 0, ptr %16, align 4, !tbaa !53
  store i32 0, ptr %12, align 8, !tbaa !54
  %17 = getelementptr inbounds nuw i8, ptr %.544.val, i64 88
  %18 = getelementptr inbounds nuw i8, ptr %.544.val, i64 96
  %19 = load ptr, ptr %18, align 8, !tbaa !38
  %.not.i20.i = icmp eq ptr %19, null
  br i1 %.not.i20.i, label %Vec_WrdErase.exit21.i, label %20

20:                                               ; preds = %Vec_WrdErase.exit.i
  tail call void @free(ptr noundef nonnull %19) #10
  store ptr null, ptr %18, align 8, !tbaa !38
  br label %Vec_WrdErase.exit21.i

Vec_WrdErase.exit21.i:                            ; preds = %20, %Vec_WrdErase.exit.i
  %21 = getelementptr inbounds nuw i8, ptr %.544.val, i64 92
  store i32 0, ptr %21, align 4, !tbaa !53
  store i32 0, ptr %17, align 8, !tbaa !54
  %22 = getelementptr inbounds nuw i8, ptr %.544.val, i64 104
  %23 = load i32, ptr %22, align 8, !tbaa !55
  %24 = icmp sgt i32 %23, 0
  %25 = getelementptr inbounds nuw i8, ptr %.544.val, i64 112
  %.pre.i.i = load ptr, ptr %25, align 8, !tbaa !56
  br i1 %24, label %.lr.ph.i.i, label %._crit_edge.i.i

.lr.ph.i.i:                                       ; preds = %Vec_WrdErase.exit21.i, %33
  %26 = phi i32 [ %34, %33 ], [ %23, %Vec_WrdErase.exit21.i ]
  %27 = phi ptr [ %35, %33 ], [ %.pre.i.i, %Vec_WrdErase.exit21.i ]
  %indvars.iv.i.i = phi i64 [ %indvars.iv.next.i.i, %33 ], [ 0, %Vec_WrdErase.exit21.i ]
  %28 = getelementptr inbounds nuw %struct.Vec_Int_t_, ptr %27, i64 %indvars.iv.i.i, i32 2
  %29 = load ptr, ptr %28, align 8, !tbaa !51
  %.not15.i.i = icmp eq ptr %29, null
  br i1 %.not15.i.i, label %33, label %30

30:                                               ; preds = %.lr.ph.i.i
  tail call void @free(ptr noundef nonnull %29) #10
  %31 = load ptr, ptr %25, align 8, !tbaa !56
  %32 = getelementptr inbounds nuw %struct.Vec_Int_t_, ptr %31, i64 %indvars.iv.i.i, i32 2
  store ptr null, ptr %32, align 8, !tbaa !51
  %.pre18.i.i = load i32, ptr %22, align 8, !tbaa !55
  br label %33

33:                                               ; preds = %30, %.lr.ph.i.i
  %34 = phi i32 [ %.pre18.i.i, %30 ], [ %26, %.lr.ph.i.i ]
  %35 = phi ptr [ %31, %30 ], [ %27, %.lr.ph.i.i ]
  %indvars.iv.next.i.i = add nuw nsw i64 %indvars.iv.i.i, 1
  %36 = sext i32 %34 to i64
  %37 = icmp slt i64 %indvars.iv.next.i.i, %36
  br i1 %37, label %.lr.ph.i.i, label %._crit_edge.thread.i.i, !llvm.loop !57

._crit_edge.i.i:                                  ; preds = %Vec_WrdErase.exit21.i
  %.not.i22.i = icmp eq ptr %.pre.i.i, null
  br i1 %.not.i22.i, label %Vec_WecErase.exit.i, label %._crit_edge.thread.i.i

._crit_edge.thread.i.i:                           ; preds = %33, %._crit_edge.i.i
  %38 = phi ptr [ %.pre.i.i, %._crit_edge.i.i ], [ %35, %33 ]
  tail call void @free(ptr noundef nonnull %38) #10
  store ptr null, ptr %25, align 8, !tbaa !56
  br label %Vec_WecErase.exit.i

Vec_WecErase.exit.i:                              ; preds = %._crit_edge.thread.i.i, %._crit_edge.i.i
  %39 = getelementptr inbounds nuw i8, ptr %.544.val, i64 108
  store i32 0, ptr %39, align 4, !tbaa !58
  store i32 0, ptr %22, align 8, !tbaa !55
  %40 = getelementptr inbounds nuw i8, ptr %.544.val, i64 120
  %41 = load i32, ptr %40, align 8, !tbaa !55
  %42 = icmp sgt i32 %41, 0
  %43 = getelementptr inbounds nuw i8, ptr %.544.val, i64 128
  %.pre.i23.i = load ptr, ptr %43, align 8, !tbaa !56
  br i1 %42, label %.lr.ph.i27.i, label %._crit_edge.i24.i

.lr.ph.i27.i:                                     ; preds = %Vec_WecErase.exit.i, %51
  %44 = phi i32 [ %52, %51 ], [ %41, %Vec_WecErase.exit.i ]
  %45 = phi ptr [ %53, %51 ], [ %.pre.i23.i, %Vec_WecErase.exit.i ]
  %indvars.iv.i28.i = phi i64 [ %indvars.iv.next.i31.i, %51 ], [ 0, %Vec_WecErase.exit.i ]
  %46 = getelementptr inbounds nuw %struct.Vec_Int_t_, ptr %45, i64 %indvars.iv.i28.i, i32 2
  %47 = load ptr, ptr %46, align 8, !tbaa !51
  %.not15.i29.i = icmp eq ptr %47, null
  br i1 %.not15.i29.i, label %51, label %48

48:                                               ; preds = %.lr.ph.i27.i
  tail call void @free(ptr noundef nonnull %47) #10
  %49 = load ptr, ptr %43, align 8, !tbaa !56
  %50 = getelementptr inbounds nuw %struct.Vec_Int_t_, ptr %49, i64 %indvars.iv.i28.i, i32 2
  store ptr null, ptr %50, align 8, !tbaa !51
  %.pre18.i30.i = load i32, ptr %40, align 8, !tbaa !55
  br label %51

51:                                               ; preds = %48, %.lr.ph.i27.i
  %52 = phi i32 [ %.pre18.i30.i, %48 ], [ %44, %.lr.ph.i27.i ]
  %53 = phi ptr [ %49, %48 ], [ %45, %.lr.ph.i27.i ]
  %indvars.iv.next.i31.i = add nuw nsw i64 %indvars.iv.i28.i, 1
  %54 = sext i32 %52 to i64
  %55 = icmp slt i64 %indvars.iv.next.i31.i, %54
  br i1 %55, label %.lr.ph.i27.i, label %._crit_edge.thread.i26.i, !llvm.loop !57

._crit_edge.i24.i:                                ; preds = %Vec_WecErase.exit.i
  %.not.i25.i = icmp eq ptr %.pre.i23.i, null
  br i1 %.not.i25.i, label %Vec_WecErase.exit32.i, label %._crit_edge.thread.i26.i

._crit_edge.thread.i26.i:                         ; preds = %51, %._crit_edge.i24.i
  %56 = phi ptr [ %.pre.i23.i, %._crit_edge.i24.i ], [ %53, %51 ]
  tail call void @free(ptr noundef nonnull %56) #10
  store ptr null, ptr %43, align 8, !tbaa !56
  br label %Vec_WecErase.exit32.i

Vec_WecErase.exit32.i:                            ; preds = %._crit_edge.thread.i26.i, %._crit_edge.i24.i
  %57 = getelementptr inbounds nuw i8, ptr %.544.val, i64 124
  store i32 0, ptr %57, align 4, !tbaa !58
  store i32 0, ptr %40, align 8, !tbaa !55
  %58 = getelementptr inbounds nuw i8, ptr %.544.val, i64 136
  %59 = getelementptr inbounds nuw i8, ptr %.544.val, i64 144
  %60 = load ptr, ptr %59, align 8, !tbaa !51
  %.not.i33.i = icmp eq ptr %60, null
  br i1 %.not.i33.i, label %Vec_IntErase.exit34.i, label %61

61:                                               ; preds = %Vec_WecErase.exit32.i
  tail call void @free(ptr noundef nonnull %60) #10
  store ptr null, ptr %59, align 8, !tbaa !51
  br label %Vec_IntErase.exit34.i

Vec_IntErase.exit34.i:                            ; preds = %61, %Vec_WecErase.exit32.i
  %62 = getelementptr inbounds nuw i8, ptr %.544.val, i64 140
  store i32 0, ptr %62, align 4, !tbaa !37
  store i32 0, ptr %58, align 8, !tbaa !52
  %63 = load ptr, ptr %.544.val, align 8, !tbaa !28
  %.not.i = icmp eq ptr %63, null
  br i1 %.not.i, label %65, label %64

64:                                               ; preds = %Vec_IntErase.exit34.i
  tail call void @free(ptr noundef nonnull %63) #10
  store ptr null, ptr %.544.val, align 8, !tbaa !28
  br label %65

65:                                               ; preds = %64, %Vec_IntErase.exit34.i
  %66 = getelementptr inbounds nuw i8, ptr %.544.val, i64 8
  %67 = load ptr, ptr %66, align 8, !tbaa !59
  %.not16.i = icmp eq ptr %67, null
  br i1 %.not16.i, label %Pla_ManFree.exit, label %68

68:                                               ; preds = %65
  tail call void @free(ptr noundef nonnull %67) #10
  br label %Pla_ManFree.exit

Pla_ManFree.exit:                                 ; preds = %65, %68
  tail call void @free(ptr noundef nonnull %.544.val) #10
  br label %69

69:                                               ; preds = %Pla_ManFree.exit, %0
  ret void
}